#include <math.h>
#include <stdio.h>
#include <stdlib.h>
#include <string.h>
#define LEN 100
#define ASCII 100
#define MAX_N 100
#define MAX_N 100
#define L 100
#define MAX 100
#define ASC 100
#define null 0
#define Len 100
#define M 100
#define SUM 100
#define NUMBER 100
#define SIZE 100
#define N 100
#define Max 100
#define X 100
#define Y 100
#define A 100
#define MAXN 100
#define MAXSIZE 100
int main(){
   char s[N];
   gets(s);
   int i;
   
   for(i=0;s[i]!='\0';i++){
    
	   if(s[i]!=' '){printf("%c",s[i]);}   
       if(s[i]==' '&&s[i+1]!=' '){printf(" ");} 
   
   }

return 0;
}